target datalayout = "e-m:e-p270:32:32-p271:32:32-p272:64:64-i64:64-i128:128-f80:128-n8:16:32:64-S128"
target triple = "x86_64-pc-linux-gnu"

%struct.AVBlowfish = type { [18 x i32], [4 x [256 x i32]] }

; Function Attrs: nounwind uwtable
define void @av_blowfish_crypt_ecb(ptr noundef %0, ptr noundef %1, ptr noundef %2, i32 noundef %3) #0 {
  %5 = alloca ptr, align 8
  %6 = alloca ptr, align 8
  %7 = alloca ptr, align 8
  %8 = alloca i32, align 4
  %9 = alloca i32, align 4
  %10 = alloca i32, align 4
  %11 = alloca i32, align 4
  store ptr %0, ptr %5, align 8, !tbaa !4
  store ptr %1, ptr %6, align 8, !tbaa !20
  store ptr %2, ptr %7, align 8, !tbaa !20
  store i32 %3, ptr %8, align 4, !tbaa !11
  call void @llvm.lifetime.start.p0(i64 4, ptr %9) #6
  call void @llvm.lifetime.start.p0(i64 4, ptr %10) #6
  call void @llvm.lifetime.start.p0(i64 4, ptr %11) #6
  %12 = load ptr, ptr %6, align 8, !tbaa !20
  %13 = load i32, ptr %12, align 4, !tbaa !11
  store i32 %13, ptr %9, align 4, !tbaa !11
  %14 = load ptr, ptr %7, align 8, !tbaa !20
  %15 = load i32, ptr %14, align 4, !tbaa !11
  store i32 %15, ptr %10, align 4, !tbaa !11
  %16 = load i32, ptr %8, align 4, !tbaa !11
  %17 = icmp ne i32 %16, 0
  br i1 %17, label %18, label %132

18:                                               ; preds = %4
  %19 = load ptr, ptr %5, align 8, !tbaa !4
  %20 = getelementptr inbounds nuw %struct.AVBlowfish, ptr %19, i32 0, i32 0
  %21 = getelementptr inbounds [18 x i32], ptr %20, i64 0, i64 17
  %22 = load i32, ptr %21, align 4, !tbaa !11
  %23 = load i32, ptr %9, align 4, !tbaa !11
  %24 = xor i32 %23, %22
  store i32 %24, ptr %9, align 4, !tbaa !11
  store i32 16, ptr %11, align 4, !tbaa !11
  br label %25

25:                                               ; preds = %122, %18
  %26 = load i32, ptr %11, align 4, !tbaa !11
  %27 = icmp sgt i32 %26, 0
  br i1 %27, label %28, label %125

28:                                               ; preds = %25
  %29 = load ptr, ptr %5, align 8, !tbaa !4
  %30 = getelementptr inbounds nuw %struct.AVBlowfish, ptr %29, i32 0, i32 1
  %31 = getelementptr inbounds [4 x [256 x i32]], ptr %30, i64 0, i64 0
  %32 = load i32, ptr %9, align 4, !tbaa !11
  %33 = lshr i32 %32, 24
  %34 = zext i32 %33 to i64
  %35 = getelementptr inbounds nuw [256 x i32], ptr %31, i64 0, i64 %34
  %36 = load i32, ptr %35, align 4, !tbaa !11
  %37 = load ptr, ptr %5, align 8, !tbaa !4
  %38 = getelementptr inbounds nuw %struct.AVBlowfish, ptr %37, i32 0, i32 1
  %39 = getelementptr inbounds [4 x [256 x i32]], ptr %38, i64 0, i64 1
  %40 = load i32, ptr %9, align 4, !tbaa !11
  %41 = lshr i32 %40, 16
  %42 = and i32 %41, 255
  %43 = zext i32 %42 to i64
  %44 = getelementptr inbounds nuw [256 x i32], ptr %39, i64 0, i64 %43
  %45 = load i32, ptr %44, align 4, !tbaa !11
  %46 = add i32 %36, %45
  %47 = load ptr, ptr %5, align 8, !tbaa !4
  %48 = getelementptr inbounds nuw %struct.AVBlowfish, ptr %47, i32 0, i32 1
  %49 = getelementptr inbounds [4 x [256 x i32]], ptr %48, i64 0, i64 2
  %50 = load i32, ptr %9, align 4, !tbaa !11
  %51 = lshr i32 %50, 8
  %52 = and i32 %51, 255
  %53 = zext i32 %52 to i64
  %54 = getelementptr inbounds nuw [256 x i32], ptr %49, i64 0, i64 %53
  %55 = load i32, ptr %54, align 4, !tbaa !11
  %56 = xor i32 %46, %55
  %57 = load ptr, ptr %5, align 8, !tbaa !4
  %58 = getelementptr inbounds nuw %struct.AVBlowfish, ptr %57, i32 0, i32 1
  %59 = getelementptr inbounds [4 x [256 x i32]], ptr %58, i64 0, i64 3
  %60 = load i32, ptr %9, align 4, !tbaa !11
  %61 = and i32 %60, 255
  %62 = zext i32 %61 to i64
  %63 = getelementptr inbounds nuw [256 x i32], ptr %59, i64 0, i64 %62
  %64 = load i32, ptr %63, align 4, !tbaa !11
  %65 = add i32 %56, %64
  %66 = load ptr, ptr %5, align 8, !tbaa !4
  %67 = getelementptr inbounds nuw %struct.AVBlowfish, ptr %66, i32 0, i32 0
  %68 = load i32, ptr %11, align 4, !tbaa !11
  %69 = sext i32 %68 to i64
  %70 = getelementptr inbounds [18 x i32], ptr %67, i64 0, i64 %69
  %71 = load i32, ptr %70, align 4, !tbaa !11
  %72 = xor i32 %65, %71
  %73 = load i32, ptr %10, align 4, !tbaa !11
  %74 = xor i32 %73, %72
  store i32 %74, ptr %10, align 4, !tbaa !11
  %75 = load ptr, ptr %5, align 8, !tbaa !4
  %76 = getelementptr inbounds nuw %struct.AVBlowfish, ptr %75, i32 0, i32 1
  %77 = getelementptr inbounds [4 x [256 x i32]], ptr %76, i64 0, i64 0
  %78 = load i32, ptr %10, align 4, !tbaa !11
  %79 = lshr i32 %78, 24
  %80 = zext i32 %79 to i64
  %81 = getelementptr inbounds nuw [256 x i32], ptr %77, i64 0, i64 %80
  %82 = load i32, ptr %81, align 4, !tbaa !11
  %83 = load ptr, ptr %5, align 8, !tbaa !4
  %84 = getelementptr inbounds nuw %struct.AVBlowfish, ptr %83, i32 0, i32 1
  %85 = getelementptr inbounds [4 x [256 x i32]], ptr %84, i64 0, i64 1
  %86 = load i32, ptr %10, align 4, !tbaa !11
  %87 = lshr i32 %86, 16
  %88 = and i32 %87, 255
  %89 = zext i32 %88 to i64
  %90 = getelementptr inbounds nuw [256 x i32], ptr %85, i64 0, i64 %89
  %91 = load i32, ptr %90, align 4, !tbaa !11
  %92 = add i32 %82, %91
  %93 = load ptr, ptr %5, align 8, !tbaa !4
  %94 = getelementptr inbounds nuw %struct.AVBlowfish, ptr %93, i32 0, i32 1
  %95 = getelementptr inbounds [4 x [256 x i32]], ptr %94, i64 0, i64 2
  %96 = load i32, ptr %10, align 4, !tbaa !11
  %97 = lshr i32 %96, 8
  %98 = and i32 %97, 255
  %99 = zext i32 %98 to i64
  %100 = getelementptr inbounds nuw [256 x i32], ptr %95, i64 0, i64 %99
  %101 = load i32, ptr %100, align 4, !tbaa !11
  %102 = xor i32 %92, %101
  %103 = load ptr, ptr %5, align 8, !tbaa !4
  %104 = getelementptr inbounds nuw %struct.AVBlowfish, ptr %103, i32 0, i32 1
  %105 = getelementptr inbounds [4 x [256 x i32]], ptr %104, i64 0, i64 3
  %106 = load i32, ptr %10, align 4, !tbaa !11
  %107 = and i32 %106, 255
  %108 = zext i32 %107 to i64
  %109 = getelementptr inbounds nuw [256 x i32], ptr %105, i64 0, i64 %108
  %110 = load i32, ptr %109, align 4, !tbaa !11
  %111 = add i32 %102, %110
  %112 = load ptr, ptr %5, align 8, !tbaa !4
  %113 = getelementptr inbounds nuw %struct.AVBlowfish, ptr %112, i32 0, i32 0
  %114 = load i32, ptr %11, align 4, !tbaa !11
  %115 = sub nsw i32 %114, 1
  %116 = sext i32 %115 to i64
  %117 = getelementptr inbounds [18 x i32], ptr %113, i64 0, i64 %116
  %118 = load i32, ptr %117, align 4, !tbaa !11
  %119 = xor i32 %111, %118
  %120 = load i32, ptr %9, align 4, !tbaa !11
  %121 = xor i32 %120, %119
  store i32 %121, ptr %9, align 4, !tbaa !11
  br label %122

122:                                              ; preds = %28
  %123 = load i32, ptr %11, align 4, !tbaa !11
  %124 = sub nsw i32 %123, 2
  store i32 %124, ptr %11, align 4, !tbaa !11
  br label %25, !llvm.loop !22

125:                                              ; preds = %25
  %126 = load ptr, ptr %5, align 8, !tbaa !4
  %127 = getelementptr inbounds nuw %struct.AVBlowfish, ptr %126, i32 0, i32 0
  %128 = getelementptr inbounds [18 x i32], ptr %127, i64 0, i64 0
  %129 = load i32, ptr %128, align 4, !tbaa !11
  %130 = load i32, ptr %10, align 4, !tbaa !11
  %131 = xor i32 %130, %129
  store i32 %131, ptr %10, align 4, !tbaa !11
  br label %246

132:                                              ; preds = %4
  %133 = load ptr, ptr %5, align 8, !tbaa !4
  %134 = getelementptr inbounds nuw %struct.AVBlowfish, ptr %133, i32 0, i32 0
  %135 = getelementptr inbounds [18 x i32], ptr %134, i64 0, i64 0
  %136 = load i32, ptr %135, align 4, !tbaa !11
  %137 = load i32, ptr %9, align 4, !tbaa !11
  %138 = xor i32 %137, %136
  store i32 %138, ptr %9, align 4, !tbaa !11
  store i32 1, ptr %11, align 4, !tbaa !11
  br label %139

139:                                              ; preds = %236, %132
  %140 = load i32, ptr %11, align 4, !tbaa !11
  %141 = icmp slt i32 %140, 17
  br i1 %141, label %142, label %239

142:                                              ; preds = %139
  %143 = load ptr, ptr %5, align 8, !tbaa !4
  %144 = getelementptr inbounds nuw %struct.AVBlowfish, ptr %143, i32 0, i32 1
  %145 = getelementptr inbounds [4 x [256 x i32]], ptr %144, i64 0, i64 0
  %146 = load i32, ptr %9, align 4, !tbaa !11
  %147 = lshr i32 %146, 24
  %148 = zext i32 %147 to i64
  %149 = getelementptr inbounds nuw [256 x i32], ptr %145, i64 0, i64 %148
  %150 = load i32, ptr %149, align 4, !tbaa !11
  %151 = load ptr, ptr %5, align 8, !tbaa !4
  %152 = getelementptr inbounds nuw %struct.AVBlowfish, ptr %151, i32 0, i32 1
  %153 = getelementptr inbounds [4 x [256 x i32]], ptr %152, i64 0, i64 1
  %154 = load i32, ptr %9, align 4, !tbaa !11
  %155 = lshr i32 %154, 16
  %156 = and i32 %155, 255
  %157 = zext i32 %156 to i64
  %158 = getelementptr inbounds nuw [256 x i32], ptr %153, i64 0, i64 %157
  %159 = load i32, ptr %158, align 4, !tbaa !11
  %160 = add i32 %150, %159
  %161 = load ptr, ptr %5, align 8, !tbaa !4
  %162 = getelementptr inbounds nuw %struct.AVBlowfish, ptr %161, i32 0, i32 1
  %163 = getelementptr inbounds [4 x [256 x i32]], ptr %162, i64 0, i64 2
  %164 = load i32, ptr %9, align 4, !tbaa !11
  %165 = lshr i32 %164, 8
  %166 = and i32 %165, 255
  %167 = zext i32 %166 to i64
  %168 = getelementptr inbounds nuw [256 x i32], ptr %163, i64 0, i64 %167
  %169 = load i32, ptr %168, align 4, !tbaa !11
  %170 = xor i32 %160, %169
  %171 = load ptr, ptr %5, align 8, !tbaa !4
  %172 = getelementptr inbounds nuw %struct.AVBlowfish, ptr %171, i32 0, i32 1
  %173 = getelementptr inbounds [4 x [256 x i32]], ptr %172, i64 0, i64 3
  %174 = load i32, ptr %9, align 4, !tbaa !11
  %175 = and i32 %174, 255
  %176 = zext i32 %175 to i64
  %177 = getelementptr inbounds nuw [256 x i32], ptr %173, i64 0, i64 %176
  %178 = load i32, ptr %177, align 4, !tbaa !11
  %179 = add i32 %170, %178
  %180 = load ptr, ptr %5, align 8, !tbaa !4
  %181 = getelementptr inbounds nuw %struct.AVBlowfish, ptr %180, i32 0, i32 0
  %182 = load i32, ptr %11, align 4, !tbaa !11
  %183 = sext i32 %182 to i64
  %184 = getelementptr inbounds [18 x i32], ptr %181, i64 0, i64 %183
  %185 = load i32, ptr %184, align 4, !tbaa !11
  %186 = xor i32 %179, %185
  %187 = load i32, ptr %10, align 4, !tbaa !11
  %188 = xor i32 %187, %186
  store i32 %188, ptr %10, align 4, !tbaa !11
  %189 = load ptr, ptr %5, align 8, !tbaa !4
  %190 = getelementptr inbounds nuw %struct.AVBlowfish, ptr %189, i32 0, i32 1
  %191 = getelementptr inbounds [4 x [256 x i32]], ptr %190, i64 0, i64 0
  %192 = load i32, ptr %10, align 4, !tbaa !11
  %193 = lshr i32 %192, 24
  %194 = zext i32 %193 to i64
  %195 = getelementptr inbounds nuw [256 x i32], ptr %191, i64 0, i64 %194
  %196 = load i32, ptr %195, align 4, !tbaa !11
  %197 = load ptr, ptr %5, align 8, !tbaa !4
  %198 = getelementptr inbounds nuw %struct.AVBlowfish, ptr %197, i32 0, i32 1
  %199 = getelementptr inbounds [4 x [256 x i32]], ptr %198, i64 0, i64 1
  %200 = load i32, ptr %10, align 4, !tbaa !11
  %201 = lshr i32 %200, 16
  %202 = and i32 %201, 255
  %203 = zext i32 %202 to i64
  %204 = getelementptr inbounds nuw [256 x i32], ptr %199, i64 0, i64 %203
  %205 = load i32, ptr %204, align 4, !tbaa !11
  %206 = add i32 %196, %205
  %207 = load ptr, ptr %5, align 8, !tbaa !4
  %208 = getelementptr inbounds nuw %struct.AVBlowfish, ptr %207, i32 0, i32 1
  %209 = getelementptr inbounds [4 x [256 x i32]], ptr %208, i64 0, i64 2
  %210 = load i32, ptr %10, align 4, !tbaa !11
  %211 = lshr i32 %210, 8
  %212 = and i32 %211, 255
  %213 = zext i32 %212 to i64
  %214 = getelementptr inbounds nuw [256 x i32], ptr %209, i64 0, i64 %213
  %215 = load i32, ptr %214, align 4, !tbaa !11
  %216 = xor i32 %206, %215
  %217 = load ptr, ptr %5, align 8, !tbaa !4
  %218 = getelementptr inbounds nuw %struct.AVBlowfish, ptr %217, i32 0, i32 1
  %219 = getelementptr inbounds [4 x [256 x i32]], ptr %218, i64 0, i64 3
  %220 = load i32, ptr %10, align 4, !tbaa !11
  %221 = and i32 %220, 255
  %222 = zext i32 %221 to i64
  %223 = getelementptr inbounds nuw [256 x i32], ptr %219, i64 0, i64 %222
  %224 = load i32, ptr %223, align 4, !tbaa !11
  %225 = add i32 %216, %224
  %226 = load ptr, ptr %5, align 8, !tbaa !4
  %227 = getelementptr inbounds nuw %struct.AVBlowfish, ptr %226, i32 0, i32 0
  %228 = load i32, ptr %11, align 4, !tbaa !11
  %229 = add nsw i32 %228, 1
  %230 = sext i32 %229 to i64
  %231 = getelementptr inbounds [18 x i32], ptr %227, i64 0, i64 %230
  %232 = load i32, ptr %231, align 4, !tbaa !11
  %233 = xor i32 %225, %232
  %234 = load i32, ptr %9, align 4, !tbaa !11
  %235 = xor i32 %234, %233
  store i32 %235, ptr %9, align 4, !tbaa !11
  br label %236

236:                                              ; preds = %142
  %237 = load i32, ptr %11, align 4, !tbaa !11
  %238 = add nsw i32 %237, 2
  store i32 %238, ptr %11, align 4, !tbaa !11
  br label %139, !llvm.loop !23

239:                                              ; preds = %139
  %240 = load ptr, ptr %5, align 8, !tbaa !4
  %241 = getelementptr inbounds nuw %struct.AVBlowfish, ptr %240, i32 0, i32 0
  %242 = getelementptr inbounds [18 x i32], ptr %241, i64 0, i64 17
  %243 = load i32, ptr %242, align 4, !tbaa !11
  %244 = load i32, ptr %10, align 4, !tbaa !11
  %245 = xor i32 %244, %243
  store i32 %245, ptr %10, align 4, !tbaa !11
  br label %246

246:                                              ; preds = %239, %125
  %247 = load i32, ptr %10, align 4, !tbaa !11
  %248 = load ptr, ptr %6, align 8, !tbaa !20
  store i32 %247, ptr %248, align 4, !tbaa !11
  %249 = load i32, ptr %9, align 4, !tbaa !11
  %250 = load ptr, ptr %7, align 8, !tbaa !20
  store i32 %249, ptr %250, align 4, !tbaa !11
  call void @llvm.lifetime.end.p0(i64 4, ptr %11) #6
  call void @llvm.lifetime.end.p0(i64 4, ptr %10) #6
  call void @llvm.lifetime.end.p0(i64 4, ptr %9) #6
  ret void
}