; Function Attrs: nofree norecurse nosync nounwind memory(argmem: readwrite) uwtable
define void @av_blowfish_crypt_ecb(ptr noundef readonly captures(none) %0, ptr noundef captures(none) %1, ptr noundef captures(none) %2, i32 noundef %3) local_unnamed_addr #5 {
  %5 = load i32, ptr %1, align 4, !tbaa !9
  %6 = load i32, ptr %2, align 4, !tbaa !9
  %.not = icmp eq i32 %3, 0
  br i1 %.not, label %71, label %7

7:                                                ; preds = %4
  %8 = getelementptr inbounds nuw i8, ptr %0, i64 68
  %9 = load i32, ptr %8, align 4, !tbaa !9
  %10 = xor i32 %9, %5
  %11 = getelementptr inbounds nuw i8, ptr %0, i64 72
  %12 = getelementptr inbounds nuw i8, ptr %0, i64 1096
  %13 = getelementptr inbounds nuw i8, ptr %0, i64 2120
  %14 = getelementptr inbounds nuw i8, ptr %0, i64 3144
  br label %15

15:                                               ; preds = %7, %15
  %indvars.iv = phi i64 [ 16, %7 ], [ %indvars.iv.next, %15 ]
  %.06268 = phi i32 [ %6, %7 ], [ %40, %15 ]
  %.06467 = phi i32 [ %10, %7 ], [ %66, %15 ]
  %16 = lshr i32 %.06467, 24
  %17 = zext nneg i32 %16 to i64
  %18 = getelementptr inbounds nuw [256 x i32], ptr %11, i64 0, i64 %17
  %19 = load i32, ptr %18, align 4, !tbaa !9
  %20 = lshr i32 %.06467, 16
  %21 = and i32 %20, 255
  %22 = zext nneg i32 %21 to i64
  %23 = getelementptr inbounds nuw [256 x i32], ptr %12, i64 0, i64 %22
  %24 = load i32, ptr %23, align 4, !tbaa !9
  %25 = add i32 %24, %19
  %26 = lshr i32 %.06467, 8
  %27 = and i32 %26, 255
  %28 = zext nneg i32 %27 to i64
  %29 = getelementptr inbounds nuw [256 x i32], ptr %13, i64 0, i64 %28
  %30 = load i32, ptr %29, align 4, !tbaa !9
  %31 = xor i32 %25, %30
  %32 = and i32 %.06467, 255
  %33 = zext nneg i32 %32 to i64
  %34 = getelementptr inbounds nuw [256 x i32], ptr %14, i64 0, i64 %33
  %35 = load i32, ptr %34, align 4, !tbaa !9
  %36 = add i32 %31, %35
  %37 = getelementptr inbounds nuw [18 x i32], ptr %0, i64 0, i64 %indvars.iv
  %38 = load i32, ptr %37, align 4, !tbaa !9
  %39 = xor i32 %38, %.06268
  %40 = xor i32 %39, %36
  %41 = lshr i32 %40, 24
  %42 = zext nneg i32 %41 to i64
  %43 = getelementptr inbounds nuw [256 x i32], ptr %11, i64 0, i64 %42
  %44 = load i32, ptr %43, align 4, !tbaa !9
  %45 = lshr i32 %40, 16
  %46 = and i32 %45, 255
  %47 = zext nneg i32 %46 to i64
  %48 = getelementptr inbounds nuw [256 x i32], ptr %12, i64 0, i64 %47
  %49 = load i32, ptr %48, align 4, !tbaa !9
  %50 = add i32 %49, %44
  %51 = lshr i32 %40, 8
  %52 = and i32 %51, 255
  %53 = zext nneg i32 %52 to i64
  %54 = getelementptr inbounds nuw [256 x i32], ptr %13, i64 0, i64 %53
  %55 = load i32, ptr %54, align 4, !tbaa !9
  %56 = xor i32 %50, %55
  %57 = and i32 %40, 255
  %58 = zext nneg i32 %57 to i64
  %59 = getelementptr inbounds nuw [256 x i32], ptr %14, i64 0, i64 %58
  %60 = load i32, ptr %59, align 4, !tbaa !9
  %61 = add i32 %56, %60
  %62 = add nsw i64 %indvars.iv, -1
  %63 = getelementptr inbounds nuw [18 x i32], ptr %0, i64 0, i64 %62
  %64 = load i32, ptr %63, align 4, !tbaa !9
  %65 = xor i32 %64, %61
  %66 = xor i32 %65, %.06467
  %indvars.iv.next = add nsw i64 %indvars.iv, -2
  %67 = icmp samesign ugt i64 %indvars.iv, 2
  br i1 %67, label %15, label %68, !llvm.loop !15

68:                                               ; preds = %15
  %69 = load i32, ptr %0, align 4, !tbaa !9
  %70 = xor i32 %69, %40
  br label %135

71:                                               ; preds = %4
  %72 = load i32, ptr %0, align 4, !tbaa !9
  %73 = xor i32 %72, %5
  %74 = getelementptr inbounds nuw i8, ptr %0, i64 72
  %75 = getelementptr inbounds nuw i8, ptr %0, i64 1096
  %76 = getelementptr inbounds nuw i8, ptr %0, i64 2120
  %77 = getelementptr inbounds nuw i8, ptr %0, i64 3144
  br label %78

78:                                               ; preds = %71, %78
  %indvars.iv77 = phi i64 [ 1, %71 ], [ %indvars.iv.next78, %78 ]
  %.271 = phi i32 [ %6, %71 ], [ %103, %78 ]
  %.26670 = phi i32 [ %73, %71 ], [ %129, %78 ]
  %79 = lshr i32 %.26670, 24
  %80 = zext nneg i32 %79 to i64
  %81 = getelementptr inbounds nuw [256 x i32], ptr %74, i64 0, i64 %80
  %82 = load i32, ptr %81, align 4, !tbaa !9
  %83 = lshr i32 %.26670, 16
  %84 = and i32 %83, 255
  %85 = zext nneg i32 %84 to i64
  %86 = getelementptr inbounds nuw [256 x i32], ptr %75, i64 0, i64 %85
  %87 = load i32, ptr %86, align 4, !tbaa !9
  %88 = add i32 %87, %82
  %89 = lshr i32 %.26670, 8
  %90 = and i32 %89, 255
  %91 = zext nneg i32 %90 to i64
  %92 = getelementptr inbounds nuw [256 x i32], ptr %76, i64 0, i64 %91
  %93 = load i32, ptr %92, align 4, !tbaa !9
  %94 = xor i32 %88, %93
  %95 = and i32 %.26670, 255
  %96 = zext nneg i32 %95 to i64
  %97 = getelementptr inbounds nuw [256 x i32], ptr %77, i64 0, i64 %96
  %98 = load i32, ptr %97, align 4, !tbaa !9
  %99 = add i32 %94, %98
  %100 = getelementptr inbounds nuw [18 x i32], ptr %0, i64 0, i64 %indvars.iv77
  %101 = load i32, ptr %100, align 4, !tbaa !9
  %102 = xor i32 %101, %.271
  %103 = xor i32 %102, %99
  %104 = lshr i32 %103, 24
  %105 = zext nneg i32 %104 to i64
  %106 = getelementptr inbounds nuw [256 x i32], ptr %74, i64 0, i64 %105
  %107 = load i32, ptr %106, align 4, !tbaa !9
  %108 = lshr i32 %103, 16
  %109 = and i32 %108, 255
  %110 = zext nneg i32 %109 to i64
  %111 = getelementptr inbounds nuw [256 x i32], ptr %75, i64 0, i64 %110
  %112 = load i32, ptr %111, align 4, !tbaa !9
  %113 = add i32 %112, %107
  %114 = lshr i32 %103, 8
  %115 = and i32 %114, 255
  %116 = zext nneg i32 %115 to i64
  %117 = getelementptr inbounds nuw [256 x i32], ptr %76, i64 0, i64 %116
  %118 = load i32, ptr %117, align 4, !tbaa !9
  %119 = xor i32 %113, %118
  %120 = and i32 %103, 255
  %121 = zext nneg i32 %120 to i64
  %122 = getelementptr inbounds nuw [256 x i32], ptr %77, i64 0, i64 %121
  %123 = load i32, ptr %122, align 4, !tbaa !9
  %124 = add i32 %119, %123
  %125 = add nuw nsw i64 %indvars.iv77, 1
  %126 = getelementptr inbounds nuw [18 x i32], ptr %0, i64 0, i64 %125
  %127 = load i32, ptr %126, align 4, !tbaa !9
  %128 = xor i32 %127, %124
  %129 = xor i32 %128, %.26670
  %indvars.iv.next78 = add nuw nsw i64 %indvars.iv77, 2
  %130 = icmp samesign ult i64 %indvars.iv77, 15
  br i1 %130, label %78, label %131, !llvm.loop !16

131:                                              ; preds = %78
  %132 = getelementptr inbounds nuw i8, ptr %0, i64 68
  %133 = load i32, ptr %132, align 4, !tbaa !9
  %134 = xor i32 %133, %103
  br label %135

135:                                              ; preds = %131, %68
  %.165 = phi i32 [ %66, %68 ], [ %129, %131 ]
  %.163 = phi i32 [ %70, %68 ], [ %134, %131 ]
  store i32 %.163, ptr %1, align 4, !tbaa !9
  store i32 %.165, ptr %2, align 4, !tbaa !9
  ret void
}